target datalayout = "e-m:e-p270:32:32-p271:32:32-p272:64:64-i64:64-i128:128-f80:128-n8:16:32:64-S128"
target triple = "x86_64-pc-linux-gnu"

; Function Attrs: alwaysinline nounwind willreturn memory(none) uwtable
define internal i32 @av_clip_uintp2_c(i32 noundef %0, i32 noundef %1) #5 {
  %3 = alloca i32, align 4
  %4 = alloca i32, align 4
  %5 = alloca i32, align 4
  store i32 %0, ptr %4, align 4, !tbaa !9
  store i32 %1, ptr %5, align 4, !tbaa !9
  %6 = load i32, ptr %4, align 4, !tbaa !9
  %7 = load i32, ptr %5, align 4, !tbaa !9
  %8 = shl i32 1, %7
  %9 = sub i32 %8, 1
  %10 = xor i32 %9, -1
  %11 = and i32 %6, %10
  %12 = icmp ne i32 %11, 0
  br i1 %12, label %13, label %21

13:                                               ; preds = %2
  %14 = load i32, ptr %4, align 4, !tbaa !9
  %15 = xor i32 %14, -1
  %16 = ashr i32 %15, 31
  %17 = load i32, ptr %5, align 4, !tbaa !9
  %18 = shl i32 1, %17
  %19 = sub i32 %18, 1
  %20 = and i32 %16, %19
  store i32 %20, ptr %3, align 4
  br label %23

21:                                               ; preds = %2
  %22 = load i32, ptr %4, align 4, !tbaa !9
  store i32 %22, ptr %3, align 4
  br label %23

23:                                               ; preds = %21, %13
  %24 = load i32, ptr %3, align 4
  ret i32 %24
}

; Function Attrs: nounwind uwtable
define internal void @pred8x8_plane_10_c(ptr noundef %0, i64 noundef %1) #1 {
  %3 = alloca ptr, align 8
  %4 = alloca i64, align 8
  %5 = alloca i32, align 4
  %6 = alloca i32, align 4
  %7 = alloca i32, align 4
  %8 = alloca ptr, align 8
  %9 = alloca i32, align 4
  %10 = alloca ptr, align 8
  %11 = alloca ptr, align 8
  %12 = alloca ptr, align 8
  %13 = alloca i32, align 4
  %14 = alloca i32, align 4
  %15 = alloca i32, align 4
  store ptr %0, ptr %3, align 8, !tbaa !12
  store i64 %1, ptr %4, align 8, !tbaa !14
  call void @llvm.lifetime.start.p0(i64 4, ptr %5) #9
  call void @llvm.lifetime.start.p0(i64 4, ptr %6) #9
  call void @llvm.lifetime.start.p0(i64 4, ptr %7) #9
  call void @llvm.lifetime.start.p0(i64 8, ptr %8) #9
  %16 = load ptr, ptr %3, align 8, !tbaa !12
  store ptr %16, ptr %8, align 8, !tbaa !16
  call void @llvm.lifetime.start.p0(i64 4, ptr %9) #9
  %17 = load i64, ptr %4, align 8, !tbaa !14
  %18 = ashr i64 %17, 1
  %19 = trunc i64 %18 to i32
  store i32 %19, ptr %9, align 4, !tbaa !9
  call void @llvm.lifetime.start.p0(i64 8, ptr %10) #9
  %20 = load ptr, ptr %8, align 8, !tbaa !16
  %21 = getelementptr inbounds i16, ptr %20, i64 3
  %22 = load i32, ptr %9, align 4, !tbaa !9
  %23 = sext i32 %22 to i64
  %24 = sub i64 0, %23
  %25 = getelementptr inbounds i16, ptr %21, i64 %24
  store ptr %25, ptr %10, align 8, !tbaa !16
  call void @llvm.lifetime.start.p0(i64 8, ptr %11) #9
  %26 = load ptr, ptr %8, align 8, !tbaa !16
  %27 = load i32, ptr %9, align 4, !tbaa !9
  %28 = mul nsw i32 4, %27
  %29 = sext i32 %28 to i64
  %30 = getelementptr inbounds i16, ptr %26, i64 %29
  %31 = getelementptr inbounds i16, ptr %30, i64 -1
  store ptr %31, ptr %11, align 8, !tbaa !16
  call void @llvm.lifetime.start.p0(i64 8, ptr %12) #9
  %32 = load ptr, ptr %11, align 8, !tbaa !16
  %33 = load i32, ptr %9, align 4, !tbaa !9
  %34 = mul nsw i32 2, %33
  %35 = sext i32 %34 to i64
  %36 = sub i64 0, %35
  %37 = getelementptr inbounds i16, ptr %32, i64 %36
  store ptr %37, ptr %12, align 8, !tbaa !16
  call void @llvm.lifetime.start.p0(i64 4, ptr %13) #9
  %38 = load ptr, ptr %10, align 8, !tbaa !16
  %39 = getelementptr inbounds i16, ptr %38, i64 1
  %40 = load i16, ptr %39, align 2, !tbaa !19
  %41 = zext i16 %40 to i32
  %42 = load ptr, ptr %10, align 8, !tbaa !16
  %43 = getelementptr inbounds i16, ptr %42, i64 -1
  %44 = load i16, ptr %43, align 2, !tbaa !19
  %45 = zext i16 %44 to i32
  %46 = sub nsw i32 %41, %45
  store i32 %46, ptr %13, align 4, !tbaa !9
  call void @llvm.lifetime.start.p0(i64 4, ptr %14) #9
  %47 = load ptr, ptr %11, align 8, !tbaa !16
  %48 = getelementptr inbounds i16, ptr %47, i64 0
  %49 = load i16, ptr %48, align 2, !tbaa !19
  %50 = zext i16 %49 to i32
  %51 = load ptr, ptr %12, align 8, !tbaa !16
  %52 = getelementptr inbounds i16, ptr %51, i64 0
  %53 = load i16, ptr %52, align 2, !tbaa !19
  %54 = zext i16 %53 to i32
  %55 = sub nsw i32 %50, %54
  store i32 %55, ptr %14, align 4, !tbaa !9
  store i32 2, ptr %6, align 4, !tbaa !9
  br label %56

56:                                               ; preds = %100, %2
  %57 = load i32, ptr %6, align 4, !tbaa !9
  %58 = icmp sle i32 %57, 4
  br i1 %58, label %59, label %103

59:                                               ; preds = %56
  %60 = load i32, ptr %9, align 4, !tbaa !9
  %61 = load ptr, ptr %11, align 8, !tbaa !16
  %62 = sext i32 %60 to i64
  %63 = getelementptr inbounds i16, ptr %61, i64 %62
  store ptr %63, ptr %11, align 8, !tbaa !16
  %64 = load i32, ptr %9, align 4, !tbaa !9
  %65 = load ptr, ptr %12, align 8, !tbaa !16
  %66 = sext i32 %64 to i64
  %67 = sub i64 0, %66
  %68 = getelementptr inbounds i16, ptr %65, i64 %67
  store ptr %68, ptr %12, align 8, !tbaa !16
  %69 = load i32, ptr %6, align 4, !tbaa !9
  %70 = load ptr, ptr %10, align 8, !tbaa !16
  %71 = load i32, ptr %6, align 4, !tbaa !9
  %72 = sext i32 %71 to i64
  %73 = getelementptr inbounds i16, ptr %70, i64 %72
  %74 = load i16, ptr %73, align 2, !tbaa !19
  %75 = zext i16 %74 to i32
  %76 = load ptr, ptr %10, align 8, !tbaa !16
  %77 = load i32, ptr %6, align 4, !tbaa !9
  %78 = sub nsw i32 0, %77
  %79 = sext i32 %78 to i64
  %80 = getelementptr inbounds i16, ptr %76, i64 %79
  %81 = load i16, ptr %80, align 2, !tbaa !19
  %82 = zext i16 %81 to i32
  %83 = sub nsw i32 %75, %82
  %84 = mul nsw i32 %69, %83
  %85 = load i32, ptr %13, align 4, !tbaa !9
  %86 = add nsw i32 %85, %84
  store i32 %86, ptr %13, align 4, !tbaa !9
  %87 = load i32, ptr %6, align 4, !tbaa !9
  %88 = load ptr, ptr %11, align 8, !tbaa !16
  %89 = getelementptr inbounds i16, ptr %88, i64 0
  %90 = load i16, ptr %89, align 2, !tbaa !19
  %91 = zext i16 %90 to i32
  %92 = load ptr, ptr %12, align 8, !tbaa !16
  %93 = getelementptr inbounds i16, ptr %92, i64 0
  %94 = load i16, ptr %93, align 2, !tbaa !19
  %95 = zext i16 %94 to i32
  %96 = sub nsw i32 %91, %95
  %97 = mul nsw i32 %87, %96
  %98 = load i32, ptr %14, align 4, !tbaa !9
  %99 = add nsw i32 %98, %97
  store i32 %99, ptr %14, align 4, !tbaa !9
  br label %100

100:                                              ; preds = %59
  %101 = load i32, ptr %6, align 4, !tbaa !9
  %102 = add nsw i32 %101, 1
  store i32 %102, ptr %6, align 4, !tbaa !9
  br label %56, !llvm.loop !86

103:                                              ; preds = %56
  %104 = load i32, ptr %13, align 4, !tbaa !9
  %105 = mul nsw i32 17, %104
  %106 = add nsw i32 %105, 16
  %107 = ashr i32 %106, 5
  store i32 %107, ptr %13, align 4, !tbaa !9
  %108 = load i32, ptr %14, align 4, !tbaa !9
  %109 = mul nsw i32 17, %108
  %110 = add nsw i32 %109, 16
  %111 = ashr i32 %110, 5
  store i32 %111, ptr %14, align 4, !tbaa !9
  %112 = load ptr, ptr %11, align 8, !tbaa !16
  %113 = getelementptr inbounds i16, ptr %112, i64 0
  %114 = load i16, ptr %113, align 2, !tbaa !19
  %115 = zext i16 %114 to i32
  %116 = load ptr, ptr %12, align 8, !tbaa !16
  %117 = getelementptr inbounds i16, ptr %116, i64 8
  %118 = load i16, ptr %117, align 2, !tbaa !19
  %119 = zext i16 %118 to i32
  %120 = add nsw i32 %115, %119
  %121 = add nsw i32 %120, 1
  %122 = mul nsw i32 16, %121
  %123 = load i32, ptr %14, align 4, !tbaa !9
  %124 = load i32, ptr %13, align 4, !tbaa !9
  %125 = add nsw i32 %123, %124
  %126 = mul nsw i32 3, %125
  %127 = sub nsw i32 %122, %126
  store i32 %127, ptr %7, align 4, !tbaa !9
  store i32 8, ptr %5, align 4, !tbaa !9
  br label %128

128:                                              ; preds = %208, %103
  %129 = load i32, ptr %5, align 4, !tbaa !9
  %130 = icmp sgt i32 %129, 0
  br i1 %130, label %131, label %211

131:                                              ; preds = %128
  call void @llvm.lifetime.start.p0(i64 4, ptr %15) #9
  %132 = load i32, ptr %7, align 4, !tbaa !9
  store i32 %132, ptr %15, align 4, !tbaa !9
  %133 = load i32, ptr %14, align 4, !tbaa !9
  %134 = load i32, ptr %7, align 4, !tbaa !9
  %135 = add nsw i32 %134, %133
  store i32 %135, ptr %7, align 4, !tbaa !9
  %136 = load i32, ptr %15, align 4, !tbaa !9
  %137 = ashr i32 %136, 5
  %138 = call i32 @av_clip_uintp2_c(i32 noundef %137, i32 noundef 10) #10
  %139 = trunc i32 %138 to i16
  %140 = load ptr, ptr %8, align 8, !tbaa !16
  %141 = getelementptr inbounds i16, ptr %140, i64 0
  store i16 %139, ptr %141, align 2, !tbaa !19
  %142 = load i32, ptr %15, align 4, !tbaa !9
  %143 = load i32, ptr %13, align 4, !tbaa !9
  %144 = add nsw i32 %142, %143
  %145 = ashr i32 %144, 5
  %146 = call i32 @av_clip_uintp2_c(i32 noundef %145, i32 noundef 10) #10
  %147 = trunc i32 %146 to i16
  %148 = load ptr, ptr %8, align 8, !tbaa !16
  %149 = getelementptr inbounds i16, ptr %148, i64 1
  store i16 %147, ptr %149, align 2, !tbaa !19
  %150 = load i32, ptr %15, align 4, !tbaa !9
  %151 = load i32, ptr %13, align 4, !tbaa !9
  %152 = mul nsw i32 2, %151
  %153 = add nsw i32 %150, %152
  %154 = ashr i32 %153, 5
  %155 = call i32 @av_clip_uintp2_c(i32 noundef %154, i32 noundef 10) #10
  %156 = trunc i32 %155 to i16
  %157 = load ptr, ptr %8, align 8, !tbaa !16
  %158 = getelementptr inbounds i16, ptr %157, i64 2
  store i16 %156, ptr %158, align 2, !tbaa !19
  %159 = load i32, ptr %15, align 4, !tbaa !9
  %160 = load i32, ptr %13, align 4, !tbaa !9
  %161 = mul nsw i32 3, %160
  %162 = add nsw i32 %159, %161
  %163 = ashr i32 %162, 5
  %164 = call i32 @av_clip_uintp2_c(i32 noundef %163, i32 noundef 10) #10
  %165 = trunc i32 %164 to i16
  %166 = load ptr, ptr %8, align 8, !tbaa !16
  %167 = getelementptr inbounds i16, ptr %166, i64 3
  store i16 %165, ptr %167, align 2, !tbaa !19
  %168 = load i32, ptr %15, align 4, !tbaa !9
  %169 = load i32, ptr %13, align 4, !tbaa !9
  %170 = mul nsw i32 4, %169
  %171 = add nsw i32 %168, %170
  %172 = ashr i32 %171, 5
  %173 = call i32 @av_clip_uintp2_c(i32 noundef %172, i32 noundef 10) #10
  %174 = trunc i32 %173 to i16
  %175 = load ptr, ptr %8, align 8, !tbaa !16
  %176 = getelementptr inbounds i16, ptr %175, i64 4
  store i16 %174, ptr %176, align 2, !tbaa !19
  %177 = load i32, ptr %15, align 4, !tbaa !9
  %178 = load i32, ptr %13, align 4, !tbaa !9
  %179 = mul nsw i32 5, %178
  %180 = add nsw i32 %177, %179
  %181 = ashr i32 %180, 5
  %182 = call i32 @av_clip_uintp2_c(i32 noundef %181, i32 noundef 10) #10
  %183 = trunc i32 %182 to i16
  %184 = load ptr, ptr %8, align 8, !tbaa !16
  %185 = getelementptr inbounds i16, ptr %184, i64 5
  store i16 %183, ptr %185, align 2, !tbaa !19
  %186 = load i32, ptr %15, align 4, !tbaa !9
  %187 = load i32, ptr %13, align 4, !tbaa !9
  %188 = mul nsw i32 6, %187
  %189 = add nsw i32 %186, %188
  %190 = ashr i32 %189, 5
  %191 = call i32 @av_clip_uintp2_c(i32 noundef %190, i32 noundef 10) #10
  %192 = trunc i32 %191 to i16
  %193 = load ptr, ptr %8, align 8, !tbaa !16
  %194 = getelementptr inbounds i16, ptr %193, i64 6
  store i16 %192, ptr %194, align 2, !tbaa !19
  %195 = load i32, ptr %15, align 4, !tbaa !9
  %196 = load i32, ptr %13, align 4, !tbaa !9
  %197 = mul nsw i32 7, %196
  %198 = add nsw i32 %195, %197
  %199 = ashr i32 %198, 5
  %200 = call i32 @av_clip_uintp2_c(i32 noundef %199, i32 noundef 10) #10
  %201 = trunc i32 %200 to i16
  %202 = load ptr, ptr %8, align 8, !tbaa !16
  %203 = getelementptr inbounds i16, ptr %202, i64 7
  store i16 %201, ptr %203, align 2, !tbaa !19
  %204 = load i32, ptr %9, align 4, !tbaa !9
  %205 = load ptr, ptr %8, align 8, !tbaa !16
  %206 = sext i32 %204 to i64
  %207 = getelementptr inbounds i16, ptr %205, i64 %206
  store ptr %207, ptr %8, align 8, !tbaa !16
  call void @llvm.lifetime.end.p0(i64 4, ptr %15) #9
  br label %208

208:                                              ; preds = %131
  %209 = load i32, ptr %5, align 4, !tbaa !9
  %210 = add nsw i32 %209, -1
  store i32 %210, ptr %5, align 4, !tbaa !9
  br label %128, !llvm.loop !87

211:                                              ; preds = %128
  call void @llvm.lifetime.end.p0(i64 4, ptr %14) #9
  call void @llvm.lifetime.end.p0(i64 4, ptr %13) #9
  call void @llvm.lifetime.end.p0(i64 8, ptr %12) #9
  call void @llvm.lifetime.end.p0(i64 8, ptr %11) #9
  call void @llvm.lifetime.end.p0(i64 8, ptr %10) #9
  call void @llvm.lifetime.end.p0(i64 4, ptr %9) #9
  call void @llvm.lifetime.end.p0(i64 8, ptr %8) #9
  call void @llvm.lifetime.end.p0(i64 4, ptr %7) #9
  call void @llvm.lifetime.end.p0(i64 4, ptr %6) #9
  call void @llvm.lifetime.end.p0(i64 4, ptr %5) #9
  ret void
}